target datalayout = "e-m:e-p270:32:32-p271:32:32-p272:64:64-i64:64-i128:128-f80:128-n8:16:32:64-S128"
target triple = "x86_64-pc-linux-gnu"

%"struct.llvm::SimplifyQuery" = type <{ ptr, ptr, ptr, ptr, ptr, ptr, ptr, %"struct.llvm::InstrInfoQuery", i8, [6 x i8] }>
%"struct.llvm::InstrInfoQuery" = type { i8 }
%"struct.llvm::LoopStandardAnalysisResults" = type { ptr, ptr, ptr, ptr, ptr, ptr, ptr, ptr, ptr, ptr }

; Function Attrs: mustprogress nounwind uwtable
define linkonce_odr hidden void @_ZN4llvm14InstrInfoQueryC2Eb(ptr noundef nonnull align 1 dereferenceable(1) %0, i1 noundef zeroext %1) unnamed_addr #1 comdat align 2 {
  %3 = alloca ptr, align 8
  %4 = alloca i8, align 1
  store ptr %0, ptr %3, align 8
  %5 = zext i1 %1 to i8
  store i8 %5, ptr %4, align 1
  %6 = load ptr, ptr %3, align 8
  %7 = getelementptr inbounds nuw %"struct.llvm::InstrInfoQuery", ptr %6, i32 0, i32 0
  %8 = load i8, ptr %4, align 1
  %9 = trunc i8 %8 to i1
  %10 = zext i1 %9 to i8
  store i8 %10, ptr %7, align 1
  ret void
}

; Function Attrs: mustprogress nounwind uwtable
define linkonce_odr hidden void @_ZN4llvm13SimplifyQueryC2ERKNS_10DataLayoutEPKNS_17TargetLibraryInfoEPKNS_13DominatorTreeEPNS_15AssumptionCacheEPKNS_11InstructionEbbPKNS_17DomConditionCacheE(ptr noundef nonnull align 8 dereferenceable(58) %0, ptr noundef nonnull align 8 dereferenceable(512) %1, ptr noundef %2, ptr noundef %3, ptr noundef %4, ptr noundef %5, i1 noundef zeroext %6, i1 noundef zeroext %7, ptr noundef %8) unnamed_addr #1 comdat align 2 {
  %10 = alloca ptr, align 8
  %11 = alloca ptr, align 8
  %12 = alloca ptr, align 8
  %13 = alloca ptr, align 8
  %14 = alloca ptr, align 8
  %15 = alloca ptr, align 8
  %16 = alloca i8, align 1
  %17 = alloca i8, align 1
  %18 = alloca ptr, align 8
  store ptr %0, ptr %10, align 8
  store ptr %1, ptr %11, align 8
  store ptr %2, ptr %12, align 8
  store ptr %3, ptr %13, align 8
  store ptr %4, ptr %14, align 8
  store ptr %5, ptr %15, align 8
  %19 = zext i1 %6 to i8
  store i8 %19, ptr %16, align 1
  %20 = zext i1 %7 to i8
  store i8 %20, ptr %17, align 1
  store ptr %8, ptr %18, align 8
  %21 = load ptr, ptr %10, align 8
  %22 = getelementptr inbounds nuw %"struct.llvm::SimplifyQuery", ptr %21, i32 0, i32 0
  %23 = load ptr, ptr %11, align 8
  store ptr %23, ptr %22, align 8
  %24 = getelementptr inbounds nuw %"struct.llvm::SimplifyQuery", ptr %21, i32 0, i32 1
  %25 = load ptr, ptr %12, align 8
  store ptr %25, ptr %24, align 8
  %26 = getelementptr inbounds nuw %"struct.llvm::SimplifyQuery", ptr %21, i32 0, i32 2
  %27 = load ptr, ptr %13, align 8
  store ptr %27, ptr %26, align 8
  %28 = getelementptr inbounds nuw %"struct.llvm::SimplifyQuery", ptr %21, i32 0, i32 3
  %29 = load ptr, ptr %14, align 8
  store ptr %29, ptr %28, align 8
  %30 = getelementptr inbounds nuw %"struct.llvm::SimplifyQuery", ptr %21, i32 0, i32 4
  %31 = load ptr, ptr %15, align 8
  store ptr %31, ptr %30, align 8
  %32 = getelementptr inbounds nuw %"struct.llvm::SimplifyQuery", ptr %21, i32 0, i32 5
  %33 = load ptr, ptr %18, align 8
  store ptr %33, ptr %32, align 8
  %34 = getelementptr inbounds nuw %"struct.llvm::SimplifyQuery", ptr %21, i32 0, i32 6
  store ptr null, ptr %34, align 8
  %35 = getelementptr inbounds nuw %"struct.llvm::SimplifyQuery", ptr %21, i32 0, i32 7
  %36 = load i8, ptr %16, align 1
  %37 = trunc i8 %36 to i1
  call void @_ZN4llvm14InstrInfoQueryC2Eb(ptr noundef nonnull align 1 dereferenceable(1) %35, i1 noundef zeroext %37)
  %38 = getelementptr inbounds nuw %"struct.llvm::SimplifyQuery", ptr %21, i32 0, i32 8
  %39 = load i8, ptr %17, align 1
  %40 = trunc i8 %39 to i1
  %41 = zext i1 %40 to i8
  store i8 %41, ptr %38, align 1
  ret void
}

; Function Attrs: mustprogress nounwind uwtable
define dso_local void @_ZN4llvm20getBestSimplifyQueryERNS_27LoopStandardAnalysisResultsERKNS_10DataLayoutE(ptr dead_on_unwind noalias writable sret(%"struct.llvm::SimplifyQuery") align 8 %0, ptr noundef nonnull align 8 dereferenceable(80) %1, ptr noundef nonnull align 8 dereferenceable(512) %2) #1 {
  %4 = alloca ptr, align 8
  %5 = alloca ptr, align 8
  store ptr %1, ptr %4, align 8
  store ptr %2, ptr %5, align 8
  %6 = load ptr, ptr %5, align 8
  %7 = load ptr, ptr %4, align 8
  %8 = getelementptr inbounds nuw %"struct.llvm::LoopStandardAnalysisResults", ptr %7, i32 0, i32 5
  %9 = load ptr, ptr %8, align 8
  %10 = load ptr, ptr %4, align 8
  %11 = getelementptr inbounds nuw %"struct.llvm::LoopStandardAnalysisResults", ptr %10, i32 0, i32 2
  %12 = load ptr, ptr %11, align 8
  %13 = load ptr, ptr %4, align 8
  %14 = getelementptr inbounds nuw %"struct.llvm::LoopStandardAnalysisResults", ptr %13, i32 0, i32 1
  %15 = load ptr, ptr %14, align 8
  call void @_ZN4llvm13SimplifyQueryC2ERKNS_10DataLayoutEPKNS_17TargetLibraryInfoEPKNS_13DominatorTreeEPNS_15AssumptionCacheEPKNS_11InstructionEbbPKNS_17DomConditionCacheE(ptr noundef nonnull align 8 dereferenceable(58) %0, ptr noundef nonnull align 8 dereferenceable(512) %6, ptr noundef %9, ptr noundef %12, ptr noundef %15, ptr noundef null, i1 noundef zeroext true, i1 noundef zeroext true, ptr noundef null)
  ret void
}