; Function Attrs: mustprogress nofree norecurse nosync nounwind willreturn memory(argmem: readwrite) uwtable
define dso_local void @_ZN4llvm20getBestSimplifyQueryERNS_27LoopStandardAnalysisResultsERKNS_10DataLayoutE(ptr dead_on_unwind noalias nocapture writable writeonly sret(%"struct.llvm::SimplifyQuery") align 8 %0, ptr nocapture noundef nonnull readonly align 8 dereferenceable(80) %1, ptr noundef nonnull align 8 dereferenceable(512) %2) local_unnamed_addr #4 {
  %4 = getelementptr inbounds nuw i8, ptr %1, i64 40
  %5 = load ptr, ptr %4, align 8
  %6 = getelementptr inbounds nuw i8, ptr %1, i64 16
  %7 = load ptr, ptr %6, align 8
  %8 = getelementptr inbounds nuw i8, ptr %1, i64 8
  %9 = load ptr, ptr %8, align 8
  store ptr %2, ptr %0, align 8
  %10 = getelementptr inbounds nuw i8, ptr %0, i64 8
  store ptr %5, ptr %10, align 8
  %11 = getelementptr inbounds nuw i8, ptr %0, i64 16
  store ptr %7, ptr %11, align 8
  %12 = getelementptr inbounds nuw i8, ptr %0, i64 24
  store ptr %9, ptr %12, align 8
  %13 = getelementptr inbounds nuw i8, ptr %0, i64 32
  %14 = getelementptr inbounds nuw i8, ptr %0, i64 56
  tail call void @llvm.memset.p0.i64(ptr noundef nonnull align 8 dereferenceable(24) %13, i8 0, i64 24, i1 false)
  store i8 1, ptr %14, align 8
  %15 = getelementptr inbounds nuw i8, ptr %0, i64 57
  store i8 1, ptr %15, align 1
  ret void
}